; Function Attrs: nounwind uwtable
define hidden i64 @mi_good_size(i64 noundef %0) local_unnamed_addr #1 {
  %2 = icmp ult i64 %0, 131073
  br i1 %2, label %3, label %25

3:                                                ; preds = %1
  %4 = add nuw nsw i64 %0, 7
  %5 = lshr i64 %4, 3
  %6 = icmp samesign ult i64 %0, 9
  br i1 %6, label %mi_bin.exit, label %7

7:                                                ; preds = %3
  %8 = icmp samesign ult i64 %0, 65
  br i1 %8, label %9, label %12

9:                                                ; preds = %7
  %10 = add nuw nsw i64 %5, 1
  %11 = and i64 %10, 30
  br label %mi_bin.exit

12:                                               ; preds = %7
  %13 = add nsw i64 %5, -1
  %14 = tail call range(i64 50, 61) i64 @llvm.ctlz.i64(i64 range(i64 8, 16384) %13, i1 true)
  %15 = shl nuw nsw i64 %14, 2
  %16 = xor i64 %15, 252
  %17 = sub nuw nsw i64 61, %14
  %18 = lshr i64 %13, %17
  %19 = and i64 %18, 3
  %20 = add nuw nsw i64 %16, 253
  %21 = add nuw nsw i64 %20, %19
  %22 = and i64 %21, 255
  br label %mi_bin.exit

mi_bin.exit:                                      ; preds = %3, %9, %12
  %.0.i = phi i64 [ %11, %9 ], [ %22, %12 ], [ 1, %3 ]
  %.idx.i = mul nuw nsw i64 %.0.i, 24
  %23 = getelementptr i8, ptr getelementptr inbounds nuw (i8, ptr @_mi_heap_empty, i64 1280), i64 %.idx.i
  %24 = load i64, ptr %23, align 8, !tbaa !3
  br label %_mi_align_up.exit

25:                                               ; preds = %1
  %26 = tail call i64 @_mi_os_page_size() #13
  %27 = tail call range(i64 0, 65) i64 @llvm.ctpop.i64(i64 %26)
  %28 = icmp samesign ult i64 %27, 2
  %29 = add i64 %0, -1
  %30 = add i64 %29, %26
  br i1 %28, label %31, label %34

31:                                               ; preds = %25
  %32 = sub i64 0, %26
  %33 = and i64 %30, %32
  br label %_mi_align_up.exit

34:                                               ; preds = %25
  %35 = urem i64 %30, %26
  %36 = sub nuw i64 %30, %35
  br label %_mi_align_up.exit

_mi_align_up.exit:                                ; preds = %34, %31, %mi_bin.exit
  %.0 = phi i64 [ %24, %mi_bin.exit ], [ %33, %31 ], [ %36, %34 ]
  ret i64 %.0
}